; Function Attrs: mustprogress nounwind uwtable
define hidden noundef ptr @_ZN12TypeKlassPtr4makeEN7TypePtr3PTREP7ciKlassiN4Type17InterfaceHandlingE(i32 noundef %0, ptr noundef %1, i32 noundef %2, i32 noundef %3) local_unnamed_addr #0 align 2 {
  %5 = alloca ptr, align 8
  store ptr %1, ptr %5, align 8
  %6 = load ptr, ptr %1, align 8
  %7 = getelementptr inbounds i8, ptr %6, i64 80
  %8 = load ptr, ptr %7, align 8
  %9 = tail call noundef zeroext i1 %8(ptr noundef nonnull align 8 dereferenceable(24) %1) #17
  br i1 %9, label %10, label %43

10:                                               ; preds = %4
  %11 = call noundef ptr @_ZN7TypePtr10interfacesERP7ciKlassbbbN4Type17InterfaceHandlingE(ptr noundef nonnull align 8 dereferenceable(8) %5, i1 zeroext poison, i1 zeroext poison, i1 zeroext poison, i32 noundef %3)
  %12 = load ptr, ptr %5, align 8
  %13 = tail call align 8 ptr @llvm.threadlocal.address.p0(ptr align 8 @_ZN6Thread12_thr_currentE)
  %14 = load ptr, ptr %13, align 8
  %15 = getelementptr inbounds i8, ptr %14, i64 1808
  %16 = load ptr, ptr %15, align 8
  %17 = getelementptr inbounds i8, ptr %16, i64 128
  %18 = load ptr, ptr %17, align 8
  %19 = getelementptr inbounds i8, ptr %18, i64 888
  store i64 64, ptr %19, align 8
  %20 = getelementptr inbounds i8, ptr %18, i64 848
  %21 = load ptr, ptr %20, align 8
  %22 = getelementptr inbounds i8, ptr %21, i64 40
  %23 = load ptr, ptr %22, align 8
  %24 = getelementptr inbounds i8, ptr %21, i64 32
  %25 = load ptr, ptr %24, align 8
  %26 = ptrtoint ptr %23 to i64
  %27 = ptrtoint ptr %25 to i64
  %28 = sub i64 %26, %27
  %.not.i.i.i.i = icmp ult i64 %28, 64
  br i1 %.not.i.i.i.i, label %31, label %29

29:                                               ; preds = %10
  %30 = getelementptr inbounds i8, ptr %25, i64 64
  store ptr %30, ptr %24, align 8
  br label %_ZN16TypeInstKlassPtr4makeEN7TypePtr3PTREP7ciKlassPK14TypeInterfacesi.exit

31:                                               ; preds = %10
  %32 = tail call noundef ptr @_ZN5Arena4growEmN17AllocFailStrategy13AllocFailEnumE(ptr noundef nonnull align 8 dereferenceable(48) %21, i64 noundef 64, i32 noundef 0) #17
  br label %_ZN16TypeInstKlassPtr4makeEN7TypePtr3PTREP7ciKlassPK14TypeInterfacesi.exit

_ZN16TypeInstKlassPtr4makeEN7TypePtr3PTREP7ciKlassPK14TypeInterfacesi.exit: ; preds = %29, %31
  %.0.i.i.i.i = phi ptr [ %25, %29 ], [ %32, %31 ]
  %33 = icmp ne ptr %.0.i.i.i.i, null
  tail call void @llvm.assume(i1 %33)
  %34 = getelementptr inbounds i8, ptr %.0.i.i.i.i, i64 8
  store ptr null, ptr %34, align 8
  %35 = getelementptr inbounds i8, ptr %.0.i.i.i.i, i64 16
  store i32 25, ptr %35, align 8
  %36 = getelementptr inbounds i8, ptr %.0.i.i.i.i, i64 24
  store ptr null, ptr %36, align 8
  %37 = getelementptr inbounds i8, ptr %.0.i.i.i.i, i64 32
  store i32 2147483647, ptr %37, align 8
  %38 = getelementptr inbounds i8, ptr %.0.i.i.i.i, i64 36
  store i32 %2, ptr %38, align 4
  %39 = getelementptr inbounds i8, ptr %.0.i.i.i.i, i64 40
  store i32 %0, ptr %39, align 8
  %40 = getelementptr inbounds i8, ptr %.0.i.i.i.i, i64 48
  store ptr %12, ptr %40, align 8
  %41 = getelementptr inbounds i8, ptr %.0.i.i.i.i, i64 56
  store ptr %11, ptr %41, align 8
  store ptr getelementptr inbounds inrange(-16, 336) (i8, ptr @_ZTV16TypeInstKlassPtr, i64 16), ptr %.0.i.i.i.i, align 8
  %42 = tail call noundef ptr @_ZN4Type8hashconsEv(ptr noundef nonnull align 8 dereferenceable(20) %.0.i.i.i.i)
  br label %45

43:                                               ; preds = %4
  %44 = tail call noundef ptr @_ZN15TypeAryKlassPtr4makeEN7TypePtr3PTREP7ciKlassiN4Type17InterfaceHandlingE(i32 noundef %0, ptr noundef nonnull %1, i32 noundef %2, i32 noundef %3)
  br label %45

45:                                               ; preds = %43, %_ZN16TypeInstKlassPtr4makeEN7TypePtr3PTREP7ciKlassPK14TypeInterfacesi.exit
  %.0 = phi ptr [ %42, %_ZN16TypeInstKlassPtr4makeEN7TypePtr3PTREP7ciKlassPK14TypeInterfacesi.exit ], [ %44, %43 ]
  ret ptr %.0
}